target datalayout = "e-m:e-p270:32:32-p271:32:32-p272:64:64-i64:64-i128:128-f80:128-n8:16:32:64-S128"
target triple = "x86_64-pc-linux-gnu"

%struct.CRYPTO_REF_COUNT = type { i32 }

@ripemd160_md = internal constant { i32, i32, i32, [4 x i8], i64, i32, [4 x i8], ptr, ptr, ptr, ptr, ptr, i32, i32, ptr, i32, [4 x i8], ptr, ptr, ptr, %struct.CRYPTO_REF_COUNT, [4 x i8], ptr, ptr, ptr, ptr, ptr, ptr, ptr, ptr, ptr, ptr, ptr, ptr, ptr, ptr, ptr } { i32 117, i32 119, i32 20, [4 x i8] zeroinitializer, i64 0, i32 1, [4 x i8] zeroinitializer, ptr @ripe_init, ptr @ripe_update, ptr @ripe_final, ptr null, ptr null, i32 64, i32 0, ptr null, i32 0, [4 x i8] zeroinitializer, ptr null, ptr null, ptr null, %struct.CRYPTO_REF_COUNT zeroinitializer, [4 x i8] zeroinitializer, ptr null, ptr null, ptr null, ptr null, ptr null, ptr null, ptr null, ptr null, ptr null, ptr null, ptr null, ptr null, ptr null, ptr null, ptr null }, align 8

; Function Attrs: nounwind uwtable
define ptr @EVP_ripemd160() #0 {
  ret ptr @ripemd160_md
}

; Function Attrs: nounwind uwtable
define internal i32 @ripe_init(ptr noundef %0) #0 {
  %2 = alloca ptr, align 8
  store ptr %0, ptr %2, align 8, !tbaa !3
  %3 = load ptr, ptr %2, align 8, !tbaa !3
  %4 = call ptr @EVP_MD_CTX_get0_md_data(ptr noundef %3)
  %5 = call i32 @RIPEMD160_Init(ptr noundef %4)
  ret i32 %5
}

; Function Attrs: nounwind uwtable
define internal i32 @ripe_update(ptr noundef %0, ptr noundef %1, i64 noundef %2) #0 {
  %4 = alloca ptr, align 8
  %5 = alloca ptr, align 8
  %6 = alloca i64, align 8
  store ptr %0, ptr %4, align 8, !tbaa !3
  store ptr %1, ptr %5, align 8, !tbaa !8
  store i64 %2, ptr %6, align 8, !tbaa !9
  %7 = load ptr, ptr %4, align 8, !tbaa !3
  %8 = call ptr @EVP_MD_CTX_get0_md_data(ptr noundef %7)
  %9 = load ptr, ptr %5, align 8, !tbaa !8
  %10 = load i64, ptr %6, align 8, !tbaa !9
  %11 = call i32 @RIPEMD160_Update(ptr noundef %8, ptr noundef %9, i64 noundef %10)
  ret i32 %11
}

; Function Attrs: nounwind uwtable
define internal i32 @ripe_final(ptr noundef %0, ptr noundef %1) #0 {
  %3 = alloca ptr, align 8
  %4 = alloca ptr, align 8
  store ptr %0, ptr %3, align 8, !tbaa !3
  store ptr %1, ptr %4, align 8, !tbaa !11
  %5 = load ptr, ptr %4, align 8, !tbaa !11
  %6 = load ptr, ptr %3, align 8, !tbaa !3
  %7 = call ptr @EVP_MD_CTX_get0_md_data(ptr noundef %6)
  %8 = call i32 @RIPEMD160_Final(ptr noundef %5, ptr noundef %7)
  ret i32 %8
}

declare i32 @RIPEMD160_Init(ptr noundef) #1

declare ptr @EVP_MD_CTX_get0_md_data(ptr noundef) #1

declare i32 @RIPEMD160_Update(ptr noundef, ptr noundef, i64 noundef) #1

declare i32 @RIPEMD160_Final(ptr noundef, ptr noundef) #1


!llvm.module.flags = !{!0, !1, !2}

!0 = !{i32 1, !"wchar_size", i32 4}
!1 = !{i32 8, !"PIC Level", i32 2}
!2 = !{i32 7, !"uwtable", i32 2}
!3 = !{!4, !4, i64 0}
!4 = !{!"p1 _ZTS13evp_md_ctx_st", !5, i64 0}
!5 = !{!"any pointer", !6, i64 0}
!6 = !{!"omnipotent char", !7, i64 0}
!7 = !{!"Simple C/C++ TBAA"}
!8 = !{!5, !5, i64 0}
!9 = !{!10, !10, i64 0}
!10 = !{!"long", !6, i64 0}
!11 = !{!12, !12, i64 0}
!12 = !{!"p1 omnipotent char", !5, i64 0}
