; ModuleID = 'bench/openssl/original/legacy_ripemd.ll'
source_filename = "bench/openssl/original/legacy_ripemd.ll"
target datalayout = "e-m:e-p270:32:32-p271:32:32-p272:64:64-i64:64-i128:128-f80:128-n8:16:32:64-S128"
target triple = "x86_64-pc-linux-gnu"

%struct.CRYPTO_REF_COUNT = type { i32 }

@ripemd160_md = internal constant { i32, i32, i32, [4 x i8], i64, i32, [4 x i8], ptr, ptr, ptr, ptr, ptr, i32, i32, ptr, i32, [4 x i8], ptr, ptr, ptr, %struct.CRYPTO_REF_COUNT, [4 x i8], ptr, ptr, ptr, ptr, ptr, ptr, ptr, ptr, ptr, ptr, ptr, ptr, ptr, ptr, ptr } { i32 117, i32 119, i32 20, [4 x i8] zeroinitializer, i64 0, i32 1, [4 x i8] zeroinitializer, ptr @ripe_init, ptr @ripe_update, ptr @ripe_final, ptr null, ptr null, i32 64, i32 0, ptr null, i32 0, [4 x i8] zeroinitializer, ptr null, ptr null, ptr null, %struct.CRYPTO_REF_COUNT zeroinitializer, [4 x i8] zeroinitializer, ptr null, ptr null, ptr null, ptr null, ptr null, ptr null, ptr null, ptr null, ptr null, ptr null, ptr null, ptr null, ptr null, ptr null, ptr null }, align 8

; Function Attrs: mustprogress nofree norecurse nosync nounwind willreturn memory(none) uwtable
define noundef nonnull ptr @EVP_ripemd160() local_unnamed_addr #0 {
  ret ptr @ripemd160_md
}

; Function Attrs: nounwind uwtable
define internal i32 @ripe_init(ptr noundef %0) #1 {
  %2 = tail call ptr @EVP_MD_CTX_get0_md_data(ptr noundef %0) #3
  %3 = tail call i32 @RIPEMD160_Init(ptr noundef %2) #3
  ret i32 %3
}

; Function Attrs: nounwind uwtable
define internal i32 @ripe_update(ptr noundef %0, ptr noundef %1, i64 noundef %2) #1 {
  %4 = tail call ptr @EVP_MD_CTX_get0_md_data(ptr noundef %0) #3
  %5 = tail call i32 @RIPEMD160_Update(ptr noundef %4, ptr noundef %1, i64 noundef %2) #3
  ret i32 %5
}

; Function Attrs: nounwind uwtable
define internal i32 @ripe_final(ptr noundef %0, ptr noundef %1) #1 {
  %3 = tail call ptr @EVP_MD_CTX_get0_md_data(ptr noundef %0) #3
  %4 = tail call i32 @RIPEMD160_Final(ptr noundef %1, ptr noundef %3) #3
  ret i32 %4
}

declare i32 @RIPEMD160_Init(ptr noundef) local_unnamed_addr #2

declare ptr @EVP_MD_CTX_get0_md_data(ptr noundef) local_unnamed_addr #2

declare i32 @RIPEMD160_Update(ptr noundef, ptr noundef, i64 noundef) local_unnamed_addr #2

declare i32 @RIPEMD160_Final(ptr noundef, ptr noundef) local_unnamed_addr #2


!llvm.module.flags = !{!0, !1, !2}

!0 = !{i32 1, !"wchar_size", i32 4}
!1 = !{i32 8, !"PIC Level", i32 2}
!2 = !{i32 7, !"uwtable", i32 2}
